; Function Attrs: mustprogress uwtable
define dso_local void @_ZN10ImDrawList13PushTextureIDEPv(ptr noundef nonnull align 8 captures(none) dereferenceable(200) initializes((112, 120)) %0, ptr noundef %1) local_unnamed_addr #9 align 2 {
  %3 = getelementptr inbounds nuw i8, ptr %0, i64 168
  %4 = load i32, ptr %3, align 8, !tbaa !59
  %5 = getelementptr inbounds nuw i8, ptr %0, i64 172
  %6 = load i32, ptr %5, align 4, !tbaa !57
  %7 = icmp eq i32 %4, %6
  br i1 %7, label %8, label %._ZN8ImVectorIPvE7reserveEi.exit_crit_edge.i

._ZN8ImVectorIPvE7reserveEi.exit_crit_edge.i:     ; preds = %2
  %.phi.trans.insert.i = getelementptr inbounds nuw i8, ptr %0, i64 176
  %.pre.i = load ptr, ptr %.phi.trans.insert.i, align 8, !tbaa !58
  br label %_ZN8ImVectorIPvE9push_backERKS0_.exit

8:                                                ; preds = %2
  %9 = add nsw i32 %4, 1
  %.not.i.i = icmp eq i32 %4, 0
  br i1 %.not.i.i, label %_ZNK8ImVectorIPvE14_grow_capacityEi.exit.i, label %10

10:                                               ; preds = %8
  %11 = sdiv i32 %4, 2
  %12 = add nsw i32 %11, %4
  br label %_ZNK8ImVectorIPvE14_grow_capacityEi.exit.i

_ZNK8ImVectorIPvE14_grow_capacityEi.exit.i:       ; preds = %10, %8
  %13 = phi i32 [ %12, %10 ], [ 8, %8 ]
  %14 = tail call noundef i32 @llvm.smax.i32(i32 %13, i32 %9)
  %15 = sext i32 %14 to i64
  %16 = shl nsw i64 %15, 3
  %17 = tail call noundef ptr @_ZN5ImGui8MemAllocEm(i64 noundef %16)
  %18 = getelementptr inbounds nuw i8, ptr %0, i64 176
  %19 = load ptr, ptr %18, align 8, !tbaa !58
  %.not6.i.i = icmp eq ptr %19, null
  br i1 %.not6.i.i, label %25, label %20

20:                                               ; preds = %_ZNK8ImVectorIPvE14_grow_capacityEi.exit.i
  %21 = load i32, ptr %3, align 8, !tbaa !59
  %22 = sext i32 %21 to i64
  %23 = shl nsw i64 %22, 3
  tail call void @llvm.memcpy.p0.p0.i64(ptr align 8 %17, ptr nonnull align 8 %19, i64 %23, i1 false)
  %24 = load ptr, ptr %18, align 8, !tbaa !58
  tail call void @_ZN5ImGui7MemFreeEPv(ptr noundef %24)
  br label %25

25:                                               ; preds = %20, %_ZNK8ImVectorIPvE14_grow_capacityEi.exit.i
  store ptr %17, ptr %18, align 8, !tbaa !58
  store i32 %14, ptr %5, align 4, !tbaa !57
  %.pre3.i = load i32, ptr %3, align 8, !tbaa !59
  br label %_ZN8ImVectorIPvE9push_backERKS0_.exit

_ZN8ImVectorIPvE9push_backERKS0_.exit:            ; preds = %._ZN8ImVectorIPvE7reserveEi.exit_crit_edge.i, %25
  %26 = phi i32 [ %4, %._ZN8ImVectorIPvE7reserveEi.exit_crit_edge.i ], [ %.pre3.i, %25 ]
  %27 = phi ptr [ %.pre.i, %._ZN8ImVectorIPvE7reserveEi.exit_crit_edge.i ], [ %17, %25 ]
  %28 = sext i32 %26 to i64
  %29 = getelementptr inbounds ptr, ptr %27, i64 %28
  %30 = ptrtoint ptr %1 to i64
  store i64 %30, ptr %29, align 8
  %31 = load i32, ptr %3, align 8, !tbaa !59
  %32 = add nsw i32 %31, 1
  store i32 %32, ptr %3, align 8, !tbaa !59
  %33 = getelementptr inbounds nuw i8, ptr %0, i64 112
  store ptr %1, ptr %33, align 8, !tbaa !84
  tail call void @_ZN10ImDrawList19_OnChangedTextureIDEv(ptr noundef nonnull align 8 dereferenceable(200) %0)
  ret void
}